(dp0
Vengine
p1
S'pdflatex'
p2
sVpackages
p3
c__builtin__
set
p4
((lp5
Vgensymb
p6
aVmathpazo
p7
aVgeometry
p8
aVbm
p9
aVframed
p10
aVupquote
p11
aValltt
p12
aVfontenc
p13
atp14
Rp15
sVfiles_with_guttermarks
p16
g4
((lp17
V/Users/Battrd/Documents/School&Work/pinskyPost/trawl/Reports/sim.basic.report.tex
p18
aS'sim.basic.report.tex'
p19
atp20
Rp21
sVsynctex
p22
I01
s.